target datalayout = "e-m:e-p270:32:32-p271:32:32-p272:64:64-i64:64-i128:128-f80:128-n8:16:32:64-S128"
target triple = "x86_64-pc-linux-gnu"

%struct.lexbor_dobject_t = type { ptr, ptr, i64, i64 }

; Function Attrs: nounwind uwtable
define hidden ptr @lexbor_dobject_free(ptr noundef %0, ptr noundef %1) #0 {
  %3 = alloca ptr, align 8
  %4 = alloca ptr, align 8
  %5 = alloca ptr, align 8
  store ptr %0, ptr %4, align 8
  store ptr %1, ptr %5, align 8
  %6 = load ptr, ptr %5, align 8
  %7 = icmp eq ptr %6, null
  br i1 %7, label %8, label %9

8:                                                ; preds = %2
  store ptr null, ptr %3, align 8
  br label %23

9:                                                ; preds = %2
  %10 = load ptr, ptr %4, align 8
  %11 = getelementptr inbounds %struct.lexbor_dobject_t, ptr %10, i32 0, i32 1
  %12 = load ptr, ptr %11, align 8
  %13 = load ptr, ptr %5, align 8
  %14 = call i32 @lexbor_array_push(ptr noundef %12, ptr noundef %13)
  %15 = icmp eq i32 %14, 0
  br i1 %15, label %16, label %21

16:                                               ; preds = %9
  %17 = load ptr, ptr %4, align 8
  %18 = getelementptr inbounds %struct.lexbor_dobject_t, ptr %17, i32 0, i32 2
  %19 = load i64, ptr %18, align 8
  %20 = add i64 %19, -1
  store i64 %20, ptr %18, align 8
  store ptr null, ptr %3, align 8
  br label %23

21:                                               ; preds = %9
  %22 = load ptr, ptr %5, align 8
  store ptr %22, ptr %3, align 8
  br label %23

23:                                               ; preds = %21, %16, %8
  %24 = load ptr, ptr %3, align 8
  ret ptr %24
}