; Function Attrs: nounwind uwtable
define hidden noundef ptr @lexbor_dobject_free(ptr nocapture noundef %0, ptr noundef %1) local_unnamed_addr #0 {
  %3 = icmp eq ptr %1, null
  br i1 %3, label %13, label %4

4:                                                ; preds = %2
  %5 = getelementptr inbounds i8, ptr %0, i64 8
  %6 = load ptr, ptr %5, align 8
  %7 = tail call i32 @lexbor_array_push(ptr noundef %6, ptr noundef nonnull %1) #6
  %8 = icmp eq i32 %7, 0
  br i1 %8, label %9, label %13

9:                                                ; preds = %4
  %10 = getelementptr inbounds i8, ptr %0, i64 16
  %11 = load i64, ptr %10, align 8
  %12 = add i64 %11, -1
  store i64 %12, ptr %10, align 8
  br label %13

13:                                               ; preds = %4, %2, %9
  %.0 = phi ptr [ null, %9 ], [ null, %2 ], [ %1, %4 ]
  ret ptr %.0
}